target datalayout = "e-m:e-p270:32:32-p271:32:32-p272:64:64-i64:64-i128:128-f80:128-n8:16:32:64-S128"
target triple = "x86_64-pc-linux-gnu"

%struct.LodePNGColorMode = type { i32, i32, ptr, i64, i32, i32, i32, i32 }
%struct.LodePNGInfo = type { i32, i32, i32, %struct.LodePNGColorMode, i32, i32, i32, i32, i64, ptr, ptr, i64, ptr, ptr, ptr, ptr, i32, ptr, i32, i32, %struct.LodePNGTime, i32, i32, i32, i32, i32, i32, i32, i32, i32, i32, i32, i32, i32, i32, i32, i32, i32, i32, ptr, ptr, i32, i32, i32, i32, i32, i32, i32, i32, i32, i32, i32, i32, i32, i32, i32, i32, i32, i32, i32, i32, i32, i32, i32, i32, i32, [3 x ptr], [3 x i64] }
%struct.LodePNGTime = type { i32, i32, i32, i32, i32, i32 }

; Function Attrs: mustprogress nounwind uwtable
define internal noundef i32 @_ZL14readChunk_bKGDP11LodePNGInfoPKhm(ptr noundef %0, ptr noundef %1, i64 noundef %2) #3 {
  %4 = alloca i32, align 4
  %5 = alloca ptr, align 8
  %6 = alloca ptr, align 8
  %7 = alloca i64, align 8
  store ptr %0, ptr %5, align 8, !tbaa !116
  store ptr %1, ptr %6, align 8, !tbaa !11
  store i64 %2, ptr %7, align 8, !tbaa !17
  %8 = load ptr, ptr %5, align 8, !tbaa !116
  %9 = getelementptr inbounds nuw %struct.LodePNGInfo, ptr %8, i32 0, i32 3
  %10 = getelementptr inbounds nuw %struct.LodePNGColorMode, ptr %9, i32 0, i32 0
  %11 = load i32, ptr %10, align 8, !tbaa !245
  %12 = icmp eq i32 %11, 3
  br i1 %12, label %13, label %41

13:                                               ; preds = %3
  %14 = load i64, ptr %7, align 8, !tbaa !17
  %15 = icmp ne i64 %14, 1
  br i1 %15, label %16, label %17

16:                                               ; preds = %13
  store i32 43, ptr %4, align 4
  br label %134

17:                                               ; preds = %13
  %18 = load ptr, ptr %6, align 8, !tbaa !11
  %19 = getelementptr inbounds i8, ptr %18, i64 0
  %20 = load i8, ptr %19, align 1, !tbaa !45
  %21 = zext i8 %20 to i64
  %22 = load ptr, ptr %5, align 8, !tbaa !116
  %23 = getelementptr inbounds nuw %struct.LodePNGInfo, ptr %22, i32 0, i32 3
  %24 = getelementptr inbounds nuw %struct.LodePNGColorMode, ptr %23, i32 0, i32 3
  %25 = load i64, ptr %24, align 8, !tbaa !249
  %26 = icmp uge i64 %21, %25
  br i1 %26, label %27, label %28

27:                                               ; preds = %17
  store i32 103, ptr %4, align 4
  br label %134

28:                                               ; preds = %17
  %29 = load ptr, ptr %5, align 8, !tbaa !116
  %30 = getelementptr inbounds nuw %struct.LodePNGInfo, ptr %29, i32 0, i32 4
  store i32 1, ptr %30, align 8, !tbaa !140
  %31 = load ptr, ptr %6, align 8, !tbaa !11
  %32 = getelementptr inbounds i8, ptr %31, i64 0
  %33 = load i8, ptr %32, align 1, !tbaa !45
  %34 = zext i8 %33 to i32
  %35 = load ptr, ptr %5, align 8, !tbaa !116
  %36 = getelementptr inbounds nuw %struct.LodePNGInfo, ptr %35, i32 0, i32 7
  store i32 %34, ptr %36, align 4, !tbaa !141
  %37 = load ptr, ptr %5, align 8, !tbaa !116
  %38 = getelementptr inbounds nuw %struct.LodePNGInfo, ptr %37, i32 0, i32 6
  store i32 %34, ptr %38, align 8, !tbaa !142
  %39 = load ptr, ptr %5, align 8, !tbaa !116
  %40 = getelementptr inbounds nuw %struct.LodePNGInfo, ptr %39, i32 0, i32 5
  store i32 %34, ptr %40, align 4, !tbaa !143
  br label %133

41:                                               ; preds = %3
  %42 = load ptr, ptr %5, align 8, !tbaa !116
  %43 = getelementptr inbounds nuw %struct.LodePNGInfo, ptr %42, i32 0, i32 3
  %44 = getelementptr inbounds nuw %struct.LodePNGColorMode, ptr %43, i32 0, i32 0
  %45 = load i32, ptr %44, align 8, !tbaa !245
  %46 = icmp eq i32 %45, 0
  br i1 %46, label %53, label %47

47:                                               ; preds = %41
  %48 = load ptr, ptr %5, align 8, !tbaa !116
  %49 = getelementptr inbounds nuw %struct.LodePNGInfo, ptr %48, i32 0, i32 3
  %50 = getelementptr inbounds nuw %struct.LodePNGColorMode, ptr %49, i32 0, i32 0
  %51 = load i32, ptr %50, align 8, !tbaa !245
  %52 = icmp eq i32 %51, 4
  br i1 %52, label %53, label %76

53:                                               ; preds = %47, %41
  %54 = load i64, ptr %7, align 8, !tbaa !17
  %55 = icmp ne i64 %54, 2
  br i1 %55, label %56, label %57

56:                                               ; preds = %53
  store i32 44, ptr %4, align 4
  br label %134

57:                                               ; preds = %53
  %58 = load ptr, ptr %5, align 8, !tbaa !116
  %59 = getelementptr inbounds nuw %struct.LodePNGInfo, ptr %58, i32 0, i32 4
  store i32 1, ptr %59, align 8, !tbaa !140
  %60 = load ptr, ptr %6, align 8, !tbaa !11
  %61 = getelementptr inbounds i8, ptr %60, i64 0
  %62 = load i8, ptr %61, align 1, !tbaa !45
  %63 = zext i8 %62 to i32
  %64 = mul i32 256, %63
  %65 = load ptr, ptr %6, align 8, !tbaa !11
  %66 = getelementptr inbounds i8, ptr %65, i64 1
  %67 = load i8, ptr %66, align 1, !tbaa !45
  %68 = zext i8 %67 to i32
  %69 = add i32 %64, %68
  %70 = load ptr, ptr %5, align 8, !tbaa !116
  %71 = getelementptr inbounds nuw %struct.LodePNGInfo, ptr %70, i32 0, i32 7
  store i32 %69, ptr %71, align 4, !tbaa !141
  %72 = load ptr, ptr %5, align 8, !tbaa !116
  %73 = getelementptr inbounds nuw %struct.LodePNGInfo, ptr %72, i32 0, i32 6
  store i32 %69, ptr %73, align 8, !tbaa !142
  %74 = load ptr, ptr %5, align 8, !tbaa !116
  %75 = getelementptr inbounds nuw %struct.LodePNGInfo, ptr %74, i32 0, i32 5
  store i32 %69, ptr %75, align 4, !tbaa !143
  br label %132

76:                                               ; preds = %47
  %77 = load ptr, ptr %5, align 8, !tbaa !116
  %78 = getelementptr inbounds nuw %struct.LodePNGInfo, ptr %77, i32 0, i32 3
  %79 = getelementptr inbounds nuw %struct.LodePNGColorMode, ptr %78, i32 0, i32 0
  %80 = load i32, ptr %79, align 8, !tbaa !245
  %81 = icmp eq i32 %80, 2
  br i1 %81, label %88, label %82

82:                                               ; preds = %76
  %83 = load ptr, ptr %5, align 8, !tbaa !116
  %84 = getelementptr inbounds nuw %struct.LodePNGInfo, ptr %83, i32 0, i32 3
  %85 = getelementptr inbounds nuw %struct.LodePNGColorMode, ptr %84, i32 0, i32 0
  %86 = load i32, ptr %85, align 8, !tbaa !245
  %87 = icmp eq i32 %86, 6
  br i1 %87, label %88, label %131

88:                                               ; preds = %82, %76
  %89 = load i64, ptr %7, align 8, !tbaa !17
  %90 = icmp ne i64 %89, 6
  br i1 %90, label %91, label %92

91:                                               ; preds = %88
  store i32 45, ptr %4, align 4
  br label %134

92:                                               ; preds = %88
  %93 = load ptr, ptr %5, align 8, !tbaa !116
  %94 = getelementptr inbounds nuw %struct.LodePNGInfo, ptr %93, i32 0, i32 4
  store i32 1, ptr %94, align 8, !tbaa !140
  %95 = load ptr, ptr %6, align 8, !tbaa !11
  %96 = getelementptr inbounds i8, ptr %95, i64 0
  %97 = load i8, ptr %96, align 1, !tbaa !45
  %98 = zext i8 %97 to i32
  %99 = mul i32 256, %98
  %100 = load ptr, ptr %6, align 8, !tbaa !11
  %101 = getelementptr inbounds i8, ptr %100, i64 1
  %102 = load i8, ptr %101, align 1, !tbaa !45
  %103 = zext i8 %102 to i32
  %104 = add i32 %99, %103
  %105 = load ptr, ptr %5, align 8, !tbaa !116
  %106 = getelementptr inbounds nuw %struct.LodePNGInfo, ptr %105, i32 0, i32 5
  store i32 %104, ptr %106, align 4, !tbaa !143
  %107 = load ptr, ptr %6, align 8, !tbaa !11
  %108 = getelementptr inbounds i8, ptr %107, i64 2
  %109 = load i8, ptr %108, align 1, !tbaa !45
  %110 = zext i8 %109 to i32
  %111 = mul i32 256, %110
  %112 = load ptr, ptr %6, align 8, !tbaa !11
  %113 = getelementptr inbounds i8, ptr %112, i64 3
  %114 = load i8, ptr %113, align 1, !tbaa !45
  %115 = zext i8 %114 to i32
  %116 = add i32 %111, %115
  %117 = load ptr, ptr %5, align 8, !tbaa !116
  %118 = getelementptr inbounds nuw %struct.LodePNGInfo, ptr %117, i32 0, i32 6
  store i32 %116, ptr %118, align 8, !tbaa !142
  %119 = load ptr, ptr %6, align 8, !tbaa !11
  %120 = getelementptr inbounds i8, ptr %119, i64 4
  %121 = load i8, ptr %120, align 1, !tbaa !45
  %122 = zext i8 %121 to i32
  %123 = mul i32 256, %122
  %124 = load ptr, ptr %6, align 8, !tbaa !11
  %125 = getelementptr inbounds i8, ptr %124, i64 5
  %126 = load i8, ptr %125, align 1, !tbaa !45
  %127 = zext i8 %126 to i32
  %128 = add i32 %123, %127
  %129 = load ptr, ptr %5, align 8, !tbaa !116
  %130 = getelementptr inbounds nuw %struct.LodePNGInfo, ptr %129, i32 0, i32 7
  store i32 %128, ptr %130, align 4, !tbaa !141
  br label %131

131:                                              ; preds = %92, %82
  br label %132

132:                                              ; preds = %131, %57
  br label %133

133:                                              ; preds = %132, %28
  store i32 0, ptr %4, align 4
  br label %134

134:                                              ; preds = %133, %91, %56, %27, %16
  %135 = load i32, ptr %4, align 4
  ret i32 %135
}