; Function Attrs: mustprogress nofree norecurse nosync nounwind willreturn memory(argmem: readwrite) uwtable
define internal fastcc noundef range(i32 0, 104) i32 @_ZL14readChunk_bKGDP11LodePNGInfoPKhm(ptr noundef captures(none) %0, ptr noundef readonly captures(none) %1, i64 noundef range(i64 0, 2147483648) %2) unnamed_addr #13 {
  %4 = getelementptr inbounds nuw i8, ptr %0, i64 16
  %5 = load i32, ptr %4, align 8, !tbaa !401
  switch i32 %5, label %59 [
    i32 3, label %6
    i32 0, label %18
    i32 4, label %18
    i32 2, label %30
    i32 6, label %30
  ]

6:                                                ; preds = %3
  %.not33 = icmp eq i64 %2, 1
  br i1 %.not33, label %7, label %59

7:                                                ; preds = %6
  %8 = load i8, ptr %1, align 1, !tbaa !18
  %9 = zext i8 %8 to i64
  %10 = getelementptr inbounds nuw i8, ptr %0, i64 32
  %11 = load i64, ptr %10, align 8, !tbaa !412
  %.not34 = icmp ugt i64 %11, %9
  br i1 %.not34, label %12, label %59

12:                                               ; preds = %7
  %13 = getelementptr inbounds nuw i8, ptr %0, i64 56
  store i32 1, ptr %13, align 8, !tbaa !413
  %14 = load i8, ptr %1, align 1, !tbaa !18
  %15 = zext i8 %14 to i32
  %16 = getelementptr inbounds nuw i8, ptr %0, i64 68
  store i32 %15, ptr %16, align 4, !tbaa !414
  %17 = getelementptr inbounds nuw i8, ptr %0, i64 64
  store i32 %15, ptr %17, align 8, !tbaa !415
  br label %.sink.split

18:                                               ; preds = %3, %3
  %.not32 = icmp eq i64 %2, 2
  br i1 %.not32, label %19, label %59

19:                                               ; preds = %18
  %20 = getelementptr inbounds nuw i8, ptr %0, i64 56
  store i32 1, ptr %20, align 8, !tbaa !413
  %21 = load i8, ptr %1, align 1, !tbaa !18
  %22 = zext i8 %21 to i32
  %23 = shl nuw nsw i32 %22, 8
  %24 = getelementptr inbounds nuw i8, ptr %1, i64 1
  %25 = load i8, ptr %24, align 1, !tbaa !18
  %26 = zext i8 %25 to i32
  %27 = or disjoint i32 %23, %26
  %28 = getelementptr inbounds nuw i8, ptr %0, i64 68
  store i32 %27, ptr %28, align 4, !tbaa !414
  %29 = getelementptr inbounds nuw i8, ptr %0, i64 64
  store i32 %27, ptr %29, align 8, !tbaa !415
  br label %.sink.split

30:                                               ; preds = %3, %3
  %.not = icmp eq i64 %2, 6
  br i1 %.not, label %31, label %59

31:                                               ; preds = %30
  %32 = getelementptr inbounds nuw i8, ptr %0, i64 56
  store i32 1, ptr %32, align 8, !tbaa !413
  %33 = load i8, ptr %1, align 1, !tbaa !18
  %34 = zext i8 %33 to i32
  %35 = shl nuw nsw i32 %34, 8
  %36 = getelementptr inbounds nuw i8, ptr %1, i64 1
  %37 = load i8, ptr %36, align 1, !tbaa !18
  %38 = zext i8 %37 to i32
  %39 = or disjoint i32 %35, %38
  %40 = getelementptr inbounds nuw i8, ptr %0, i64 60
  store i32 %39, ptr %40, align 4, !tbaa !416
  %41 = getelementptr inbounds nuw i8, ptr %1, i64 2
  %42 = load i8, ptr %41, align 1, !tbaa !18
  %43 = zext i8 %42 to i32
  %44 = shl nuw nsw i32 %43, 8
  %45 = getelementptr inbounds nuw i8, ptr %1, i64 3
  %46 = load i8, ptr %45, align 1, !tbaa !18
  %47 = zext i8 %46 to i32
  %48 = or disjoint i32 %44, %47
  %49 = getelementptr inbounds nuw i8, ptr %0, i64 64
  store i32 %48, ptr %49, align 8, !tbaa !415
  %50 = getelementptr inbounds nuw i8, ptr %1, i64 4
  %51 = load i8, ptr %50, align 1, !tbaa !18
  %52 = zext i8 %51 to i32
  %53 = shl nuw nsw i32 %52, 8
  %54 = getelementptr inbounds nuw i8, ptr %1, i64 5
  %55 = load i8, ptr %54, align 1, !tbaa !18
  %56 = zext i8 %55 to i32
  %57 = or disjoint i32 %53, %56
  br label %.sink.split

.sink.split:                                      ; preds = %19, %31, %12
  %.sink36 = phi i64 [ 60, %12 ], [ 68, %31 ], [ 60, %19 ]
  %.sink = phi i32 [ %15, %12 ], [ %57, %31 ], [ %27, %19 ]
  %58 = getelementptr inbounds nuw i8, ptr %0, i64 %.sink36
  store i32 %.sink, ptr %58, align 4, !tbaa !10
  br label %59

59:                                               ; preds = %.sink.split, %3, %30, %18, %7, %6
  %.0 = phi i32 [ 43, %6 ], [ 103, %7 ], [ 44, %18 ], [ 45, %30 ], [ 0, %3 ], [ 0, %.sink.split ]
  ret i32 %.0
}